target datalayout = "e-m:e-p270:32:32-p271:32:32-p272:64:64-i64:64-i128:128-f80:128-n8:16:32:64-S128"
target triple = "x86_64-pc-linux-gnu"

%struct.mock_srv_ctx = type { ptr, ptr, ptr, ptr, ptr, ptr, ptr, ptr, ptr, ptr, i32, ptr, i32, i32, i32 }

@.str = private unnamed_addr constant [35 x i8] c"../openssl/apps/lib/cmp_mock_srv.c\00", align 1
@__func__.delayed_delivery = private unnamed_addr constant [17 x i8] c"delayed_delivery\00", align 1

; Function Attrs: nounwind uwtable
define internal i32 @delayed_delivery(ptr noundef %0, ptr noundef %1) #0 {
  %3 = alloca i32, align 4
  %4 = alloca ptr, align 8
  %5 = alloca ptr, align 8
  %6 = alloca ptr, align 8
  %7 = alloca i32, align 4
  %8 = alloca i32, align 4
  store ptr %0, ptr %4, align 8, !tbaa !4
  store ptr %1, ptr %5, align 8, !tbaa !41
  call void @llvm.lifetime.start.p0(i64 8, ptr %6) #5
  %9 = load ptr, ptr %4, align 8, !tbaa !4
  %10 = call ptr @OSSL_CMP_SRV_CTX_get0_custom_ctx(ptr noundef %9)
  store ptr %10, ptr %6, align 8, !tbaa !11
  call void @llvm.lifetime.start.p0(i64 4, ptr %7) #5
  %11 = load ptr, ptr %5, align 8, !tbaa !41
  %12 = call i32 @OSSL_CMP_MSG_get_bodytype(ptr noundef %11)
  store i32 %12, ptr %7, align 4, !tbaa !31
  %13 = load ptr, ptr %6, align 8, !tbaa !11
  %14 = icmp eq ptr %13, null
  br i1 %14, label %18, label %15

15:                                               ; preds = %2
  %16 = load ptr, ptr %5, align 8, !tbaa !41
  %17 = icmp eq ptr %16, null
  br i1 %17, label %18, label %19

18:                                               ; preds = %15, %2
  call void @ERR_new()
  call void @ERR_set_debug(ptr noundef @.str, i32 noundef 225, ptr noundef @__func__.delayed_delivery)
  call void (i32, i32, ptr, ...) @ERR_set_error(i32 noundef 58, i32 noundef 103, ptr noundef null)
  store i32 -1, ptr %3, align 4
  store i32 1, ptr %8, align 4
  br label %54

19:                                               ; preds = %15
  %20 = load i32, ptr %7, align 4, !tbaa !31
  %21 = icmp eq i32 %20, 0
  br i1 %21, label %34, label %22

22:                                               ; preds = %19
  %23 = load i32, ptr %7, align 4, !tbaa !31
  %24 = icmp eq i32 %23, 2
  br i1 %24, label %34, label %25

25:                                               ; preds = %22
  %26 = load i32, ptr %7, align 4, !tbaa !31
  %27 = icmp eq i32 %26, 4
  br i1 %27, label %34, label %28

28:                                               ; preds = %25
  %29 = load i32, ptr %7, align 4, !tbaa !31
  %30 = icmp eq i32 %29, 7
  br i1 %30, label %34, label %31

31:                                               ; preds = %28
  %32 = load i32, ptr %7, align 4, !tbaa !31
  %33 = icmp eq i32 %32, 23
  br i1 %33, label %34, label %35

34:                                               ; preds = %31, %28, %25, %22, %19
  store i32 0, ptr %3, align 4
  store i32 1, ptr %8, align 4
  br label %54

35:                                               ; preds = %31
  %36 = load ptr, ptr %6, align 8, !tbaa !11
  %37 = getelementptr inbounds nuw %struct.mock_srv_ctx, ptr %36, i32 0, i32 12
  %38 = load i32, ptr %37, align 8, !tbaa !37
  %39 = icmp sgt i32 %38, 0
  br i1 %39, label %40, label %53

40:                                               ; preds = %35
  %41 = load ptr, ptr %6, align 8, !tbaa !11
  %42 = getelementptr inbounds nuw %struct.mock_srv_ctx, ptr %41, i32 0, i32 13
  %43 = load i32, ptr %42, align 4, !tbaa !50
  %44 = icmp eq i32 %43, 0
  br i1 %44, label %45, label %53

45:                                               ; preds = %40
  %46 = load ptr, ptr %5, align 8, !tbaa !41
  %47 = call ptr @OSSL_CMP_MSG_dup(ptr noundef %46)
  %48 = load ptr, ptr %6, align 8, !tbaa !11
  %49 = getelementptr inbounds nuw %struct.mock_srv_ctx, ptr %48, i32 0, i32 11
  store ptr %47, ptr %49, align 8, !tbaa !51
  %50 = icmp eq ptr %47, null
  br i1 %50, label %51, label %52

51:                                               ; preds = %45
  store i32 -1, ptr %3, align 4
  store i32 1, ptr %8, align 4
  br label %54

52:                                               ; preds = %45
  store i32 1, ptr %3, align 4
  store i32 1, ptr %8, align 4
  br label %54

53:                                               ; preds = %40, %35
  store i32 0, ptr %3, align 4
  store i32 1, ptr %8, align 4
  br label %54

54:                                               ; preds = %53, %52, %51, %34, %18
  call void @llvm.lifetime.end.p0(i64 4, ptr %7) #5
  call void @llvm.lifetime.end.p0(i64 8, ptr %6) #5
  %55 = load i32, ptr %3, align 4
  ret i32 %55
}