; Function Attrs: nounwind uwtable
define internal range(i32 -1, 2) i32 @delayed_delivery(ptr noundef %0, ptr noundef %1) #0 {
  %3 = tail call ptr @OSSL_CMP_SRV_CTX_get0_custom_ctx(ptr noundef %0) #4
  %4 = tail call i32 @OSSL_CMP_MSG_get_bodytype(ptr noundef %1) #4
  %5 = icmp eq ptr %3, null
  %6 = icmp eq ptr %1, null
  %or.cond = or i1 %6, %5
  br i1 %or.cond, label %7, label %8

7:                                                ; preds = %2
  tail call void @ERR_new() #4
  tail call void @ERR_set_debug(ptr noundef nonnull @.str, i32 noundef 225, ptr noundef nonnull @__func__.delayed_delivery) #4
  tail call void (i32, i32, ptr, ...) @ERR_set_error(i32 noundef 58, i32 noundef 103, ptr noundef null) #4
  br label %21

8:                                                ; preds = %2
  switch i32 %4, label %9 [
    i32 23, label %21
    i32 7, label %21
    i32 4, label %21
    i32 2, label %21
    i32 0, label %21
  ]

9:                                                ; preds = %8
  %10 = getelementptr inbounds nuw i8, ptr %3, i64 96
  %11 = load i32, ptr %10, align 8, !tbaa !26
  %12 = icmp sgt i32 %11, 0
  br i1 %12, label %13, label %21

13:                                               ; preds = %9
  %14 = getelementptr inbounds nuw i8, ptr %3, i64 100
  %15 = load i32, ptr %14, align 4, !tbaa !31
  %16 = icmp eq i32 %15, 0
  br i1 %16, label %17, label %21

17:                                               ; preds = %13
  %18 = tail call ptr @OSSL_CMP_MSG_dup(ptr noundef nonnull %1) #4
  %19 = getelementptr inbounds nuw i8, ptr %3, i64 88
  store ptr %18, ptr %19, align 8, !tbaa !28
  %20 = icmp eq ptr %18, null
  %. = select i1 %20, i32 -1, i32 1
  br label %21

21:                                               ; preds = %9, %13, %17, %8, %8, %8, %8, %8, %7
  %.0 = phi i32 [ -1, %7 ], [ 0, %8 ], [ 0, %8 ], [ 0, %8 ], [ 0, %8 ], [ 0, %8 ], [ %., %17 ], [ 0, %13 ], [ 0, %9 ]
  ret i32 %.0
}